; Function Attrs: nounwind uwtable
define ptr @lv_draw_sw_grad_get(ptr noundef readonly captures(none) %0, i32 noundef %1, i32 noundef %2) local_unnamed_addr #0 {
  %4 = getelementptr inbounds nuw i8, ptr %0, i64 11
  %5 = load i8, ptr %4, align 1
  %6 = and i8 %5, 15
  switch i8 %6, label %8 [
    i8 0, label %.loopexit
    i8 2, label %9
    i8 3, label %9
    i8 4, label %9
    i8 5, label %9
    i8 1, label %7
  ]

7:                                                ; preds = %3
  br label %9

8:                                                ; preds = %3
  br label %9

9:                                                ; preds = %3, %3, %3, %3, %8, %7
  %.017.i = phi i32 [ 64, %8 ], [ %2, %7 ], [ %1, %3 ], [ %1, %3 ], [ %1, %3 ], [ %1, %3 ]
  %10 = sext i32 %.017.i to i64
  %11 = mul nsw i64 %10, 3
  %12 = add nsw i64 %11, 7
  %13 = and i64 %12, -8
  %14 = add nsw i64 %10, 7
  %15 = and i64 %14, -8
  %16 = add nsw i64 %15, 24
  %17 = add nsw i64 %16, %13
  %18 = tail call ptr @lv_malloc(i64 noundef %17) #3
  %.not.i = icmp eq ptr %18, null
  br i1 %.not.i, label %.preheader.i, label %allocate_item.exit

.preheader.i:                                     ; preds = %9, %.preheader.i
  br label %.preheader.i

allocate_item.exit:                               ; preds = %9
  %19 = getelementptr inbounds nuw i8, ptr %18, i64 24
  store ptr %19, ptr %18, align 8, !tbaa !3
  %20 = getelementptr inbounds nuw i8, ptr %19, i64 %13
  %21 = getelementptr inbounds nuw i8, ptr %18, i64 8
  store ptr %20, ptr %21, align 8, !tbaa !10
  %22 = getelementptr inbounds nuw i8, ptr %18, i64 16
  store i32 %.017.i, ptr %22, align 8, !tbaa !11
  %.not = icmp eq i32 %.017.i, 0
  br i1 %.not, label %.loopexit, label %.lr.ph

.lr.ph:                                           ; preds = %allocate_item.exit, %.lr.ph
  %indvars.iv = phi i64 [ %indvars.iv.next, %.lr.ph ], [ 0, %allocate_item.exit ]
  %23 = phi i32 [ %29, %.lr.ph ], [ %.017.i, %allocate_item.exit ]
  %24 = load ptr, ptr %18, align 8, !tbaa !3
  %25 = getelementptr inbounds nuw %struct.lv_color_t, ptr %24, i64 %indvars.iv
  %26 = load ptr, ptr %21, align 8, !tbaa !10
  %27 = getelementptr inbounds nuw i8, ptr %26, i64 %indvars.iv
  %28 = trunc nuw i64 %indvars.iv to i32
  tail call void @lv_draw_sw_grad_color_calculate(ptr noundef %0, i32 noundef %23, i32 noundef %28, ptr noundef %25, ptr noundef %27)
  %indvars.iv.next = add nuw nsw i64 %indvars.iv, 1
  %29 = load i32, ptr %22, align 8, !tbaa !11
  %30 = zext i32 %29 to i64
  %31 = icmp samesign ult i64 %indvars.iv.next, %30
  br i1 %31, label %.lr.ph, label %.loopexit, !llvm.loop !12

.loopexit:                                        ; preds = %.lr.ph, %allocate_item.exit, %3
  %.017 = phi ptr [ null, %3 ], [ %18, %allocate_item.exit ], [ %18, %.lr.ph ]
  ret ptr %.017
}